(dp0
S'standard_scale_distance'
p1
cnumpy.core.multiarray
scalar
p2
(cnumpy
dtype
p3
(S'f8'
p4
I0
I1
tp5
Rp6
(I3
S'<'
p7
NNNI-1
I-1
I0
tp8
bS'.\x15\xa0\xe3F\x967@'
p9
tp10
Rp11
sS'mean_point_size'
p12
g2
(g6
S'\x00\x00\x00\xf0Y\xd9\n@'
p13
tp14
Rp15
s.